target datalayout = "e-m:e-p270:32:32-p271:32:32-p272:64:64-i64:64-i128:128-f80:128-n8:16:32:64-S128"
target triple = "x86_64-pc-linux-gnu"

%struct.vt_vector = type { i32, %union.anon.0 }
%union.anon.0 = type { ptr }
%struct.vtype_data = type { i32, ptr, i32, ptr, ptr, ptr }

@.str.1156 = private unnamed_addr constant [29 x i8] c"%s:%u: failed assertion \22%s\22\00", align 1
@.str.1157 = private unnamed_addr constant [31 x i8] c"epan/dissectors/packet-mswsp.c\00", align 1
@.str.1184 = private unnamed_addr constant [34 x i8] c"%s:%u: failed assertion \22%s\22 (%s)\00", align 1
@.str.1186 = private unnamed_addr constant [74 x i8] c"type that we don't know yet how to handle, please submit a bug with trace\00", align 1
@.str.1229 = private unnamed_addr constant [42 x i8] c"(void*)&val->u == ((void*)&val->u.vt_ui1)\00", align 1
@.str.1230 = private unnamed_addr constant [19 x i8] c"type->tvb_get != 0\00", align 1

; Function Attrs: null_pointer_is_valid sspstrong uwtable
define internal i32 @vvalue_tvb_vector_internal(ptr noundef %0, i32 noundef %1, ptr noundef %2, ptr noundef %3, i32 noundef %4) #0 {
  %6 = alloca ptr, align 8
  %7 = alloca i32, align 4
  %8 = alloca ptr, align 8
  %9 = alloca ptr, align 8
  %10 = alloca i32, align 4
  %11 = alloca i32, align 4
  %12 = alloca i8, align 1
  %13 = alloca i32, align 4
  %14 = alloca ptr, align 8
  %15 = alloca i32, align 4
  %16 = alloca i32, align 4
  %17 = alloca i32, align 4
  store ptr %0, ptr %6, align 8
  store i32 %1, ptr %7, align 4
  store ptr %2, ptr %8, align 8
  store ptr %3, ptr %9, align 8
  store i32 %4, ptr %10, align 4
  call void @llvm.lifetime.start.p0(i64 4, ptr %11) #11
  %18 = load i32, ptr %7, align 4
  store i32 %18, ptr %11, align 4
  call void @llvm.lifetime.start.p0(i64 1, ptr %12) #11
  %19 = load ptr, ptr %9, align 8
  %20 = getelementptr inbounds nuw %struct.vtype_data, ptr %19, i32 0, i32 2
  %21 = load i32, ptr %20, align 8
  %22 = icmp eq i32 %21, -1
  %23 = zext i1 %22 to i8
  store i8 %23, ptr %12, align 1
  call void @llvm.lifetime.start.p0(i64 4, ptr %13) #11
  %24 = load i8, ptr %12, align 1, !range !8, !noundef !9
  %25 = trunc i8 %24 to i1
  br i1 %25, label %26, label %27

26:                                               ; preds = %5
  br label %31

27:                                               ; preds = %5
  %28 = load ptr, ptr %9, align 8
  %29 = getelementptr inbounds nuw %struct.vtype_data, ptr %28, i32 0, i32 2
  %30 = load i32, ptr %29, align 8
  br label %31

31:                                               ; preds = %27, %26
  %32 = phi i32 [ 16, %26 ], [ %30, %27 ]
  store i32 %32, ptr %13, align 4
  call void @llvm.lifetime.start.p0(i64 8, ptr %14) #11
  call void @llvm.lifetime.start.p0(i64 4, ptr %15) #11
  call void @llvm.lifetime.start.p0(i64 4, ptr %16) #11
  %33 = load i32, ptr %10, align 4
  %34 = icmp ugt i32 %33, 5000
  br i1 %34, label %35, label %36

35:                                               ; preds = %31
  call void @except_throw(i64 noundef 1, i64 noundef 3, ptr noundef null) #12
  unreachable

36:                                               ; preds = %31
  %37 = load ptr, ptr %6, align 8
  %38 = load i32, ptr %7, align 4
  %39 = load i32, ptr %13, align 4
  %40 = load i32, ptr %10, align 4
  %41 = mul i32 %39, %40
  call void @tvb_ensure_bytes_exist(ptr noundef %37, i32 noundef %38, i32 noundef %41)
  %42 = call ptr @wmem_packet_scope()
  %43 = load i32, ptr %13, align 4
  %44 = load i32, ptr %10, align 4
  %45 = mul i32 %43, %44
  %46 = zext i32 %45 to i64
  %47 = call noalias ptr @wmem_alloc(ptr noundef %42, i64 noundef %46) #13
  store ptr %47, ptr %14, align 8
  %48 = load i32, ptr %10, align 4
  %49 = load ptr, ptr %8, align 8
  %50 = getelementptr inbounds nuw %struct.vt_vector, ptr %49, i32 0, i32 0
  store i32 %48, ptr %50, align 8
  %51 = load ptr, ptr %14, align 8
  %52 = load ptr, ptr %8, align 8
  %53 = getelementptr inbounds nuw %struct.vt_vector, ptr %52, i32 0, i32 1
  store ptr %51, ptr %53, align 8
  %54 = load ptr, ptr %8, align 8
  %55 = getelementptr inbounds nuw %struct.vt_vector, ptr %54, i32 0, i32 1
  %56 = load ptr, ptr %8, align 8
  %57 = getelementptr inbounds nuw %struct.vt_vector, ptr %56, i32 0, i32 1
  %58 = icmp eq ptr %55, %57
  br i1 %58, label %59, label %60

59:                                               ; preds = %36
  br label %62

60:                                               ; preds = %36
  call void (ptr, ...) @proto_report_dissector_bug(ptr noundef @.str.1156, ptr noundef @.str.1157, i32 noundef 4019, ptr noundef @.str.1229) #12
  unreachable

61:                                               ; No predecessors!
  br label %62

62:                                               ; preds = %61, %59
  store i32 0, ptr %16, align 4
  br label %63

63:                                               ; preds = %104, %62
  %64 = load i32, ptr %16, align 4
  %65 = load i32, ptr %10, align 4
  %66 = icmp ult i32 %64, %65
  br i1 %66, label %67, label %107

67:                                               ; preds = %63
  %68 = load ptr, ptr %9, align 8
  %69 = getelementptr inbounds nuw %struct.vtype_data, ptr %68, i32 0, i32 3
  %70 = load ptr, ptr %69, align 8
  %71 = icmp ne ptr %70, null
  br i1 %71, label %72, label %73

72:                                               ; preds = %67
  br label %75

73:                                               ; preds = %67
  call void (ptr, ...) @proto_report_dissector_bug(ptr noundef @.str.1184, ptr noundef @.str.1157, i32 noundef 4023, ptr noundef @.str.1230, ptr noundef @.str.1186) #12
  unreachable

74:                                               ; No predecessors!
  br label %75

75:                                               ; preds = %74, %72
  %76 = load ptr, ptr %9, align 8
  %77 = getelementptr inbounds nuw %struct.vtype_data, ptr %76, i32 0, i32 3
  %78 = load ptr, ptr %77, align 8
  %79 = load ptr, ptr %6, align 8
  %80 = load i32, ptr %7, align 4
  %81 = load ptr, ptr %14, align 8
  %82 = call i32 %78(ptr noundef %79, i32 noundef %80, ptr noundef %81)
  store i32 %82, ptr %15, align 4
  %83 = load i32, ptr %13, align 4
  %84 = load ptr, ptr %14, align 8
  %85 = zext i32 %83 to i64
  %86 = getelementptr i8, ptr %84, i64 %85
  store ptr %86, ptr %14, align 8
  %87 = load i32, ptr %15, align 4
  %88 = load i32, ptr %7, align 4
  %89 = add i32 %88, %87
  store i32 %89, ptr %7, align 4
  %90 = load i8, ptr %12, align 1, !range !8, !noundef !9
  %91 = trunc i8 %90 to i1
  br i1 %91, label %92, label %103

92:                                               ; preds = %75
  %93 = load i32, ptr %7, align 4
  %94 = srem i32 %93, 4
  %95 = icmp ne i32 %94, 0
  br i1 %95, label %96, label %103

96:                                               ; preds = %92
  call void @llvm.lifetime.start.p0(i64 4, ptr %17) #11
  %97 = load i32, ptr %7, align 4
  %98 = srem i32 %97, 4
  %99 = sub i32 4, %98
  store i32 %99, ptr %17, align 4
  %100 = load i32, ptr %17, align 4
  %101 = load i32, ptr %7, align 4
  %102 = add i32 %101, %100
  store i32 %102, ptr %7, align 4
  call void @llvm.lifetime.end.p0(i64 4, ptr %17) #11
  br label %103

103:                                              ; preds = %96, %92, %75
  br label %104

104:                                              ; preds = %103
  %105 = load i32, ptr %16, align 4
  %106 = add i32 %105, 1
  store i32 %106, ptr %16, align 4
  br label %63, !llvm.loop !18

107:                                              ; preds = %63
  %108 = load i32, ptr %7, align 4
  %109 = load i32, ptr %11, align 4
  %110 = sub i32 %108, %109
  call void @llvm.lifetime.end.p0(i64 4, ptr %16) #11
  call void @llvm.lifetime.end.p0(i64 4, ptr %15) #11
  call void @llvm.lifetime.end.p0(i64 8, ptr %14) #11
  call void @llvm.lifetime.end.p0(i64 4, ptr %13) #11
  call void @llvm.lifetime.end.p0(i64 1, ptr %12) #11
  call void @llvm.lifetime.end.p0(i64 4, ptr %11) #11
  ret i32 %110
}