; Function Attrs: null_pointer_is_valid sspstrong uwtable
define internal fastcc i32 @vvalue_tvb_vector_internal(ptr noundef %0, i32 noundef %1, ptr noundef writeonly captures(none) %2, ptr noundef readonly captures(none) %3, i32 noundef %4) unnamed_addr #0 {
  %6 = getelementptr inbounds nuw i8, ptr %3, i64 16
  %7 = load i32, ptr %6, align 8
  %.fr47 = freeze i32 %7
  %8 = icmp eq i32 %.fr47, -1
  %spec.select = select i1 %8, i32 16, i32 %.fr47
  %9 = icmp ugt i32 %4, 5000
  br i1 %9, label %10, label %11

10:                                               ; preds = %5
  tail call void @except_throw(i64 noundef 1, i64 noundef 3, ptr noundef null) #13
  unreachable

11:                                               ; preds = %5
  %12 = mul i32 %spec.select, %4
  tail call void @tvb_ensure_bytes_exist(ptr noundef %0, i32 noundef %1, i32 noundef %12)
  %13 = tail call ptr @wmem_packet_scope()
  %14 = zext i32 %12 to i64
  %15 = tail call noalias ptr @wmem_alloc(ptr noundef %13, i64 noundef %14) #12
  store i32 %4, ptr %2, align 8
  %16 = getelementptr inbounds nuw i8, ptr %2, i64 8
  store ptr %15, ptr %16, align 8
  %.not46 = icmp eq i32 %4, 0
  br i1 %.not46, label %._crit_edge, label %.lr.ph

.lr.ph:                                           ; preds = %11
  %17 = getelementptr inbounds nuw i8, ptr %3, i64 24
  %18 = zext i32 %spec.select to i64
  br i1 %8, label %.lr.ph.split.us, label %.lr.ph.split

.lr.ph.split.us:                                  ; preds = %.lr.ph, %20
  %.045.us = phi i32 [ %.1.us, %20 ], [ %1, %.lr.ph ]
  %.03544.us = phi i32 [ %26, %20 ], [ 0, %.lr.ph ]
  %.03643.us = phi ptr [ %22, %20 ], [ %15, %.lr.ph ]
  %19 = load ptr, ptr %17, align 8
  %.not.us = icmp eq ptr %19, null
  br i1 %.not.us, label %.split.us, label %20

20:                                               ; preds = %.lr.ph.split.us
  %21 = tail call i32 %19(ptr noundef %0, i32 noundef %.045.us, ptr noundef %.03643.us)
  %22 = getelementptr i8, ptr %.03643.us, i64 %18
  %23 = add i32 %21, %.045.us
  %24 = srem i32 %23, 4
  %.not41.us = icmp eq i32 %24, 0
  %reass.sub.us = add i32 %23, 4
  %25 = sub i32 %reass.sub.us, %24
  %.1.us = select i1 %.not41.us, i32 %23, i32 %25
  %26 = add nuw i32 %.03544.us, 1
  %exitcond50.not = icmp eq i32 %26, %4
  br i1 %exitcond50.not, label %._crit_edge, label %.lr.ph.split.us, !llvm.loop !20

.lr.ph.split:                                     ; preds = %.lr.ph, %28
  %.045 = phi i32 [ %31, %28 ], [ %1, %.lr.ph ]
  %.03544 = phi i32 [ %32, %28 ], [ 0, %.lr.ph ]
  %.03643 = phi ptr [ %30, %28 ], [ %15, %.lr.ph ]
  %27 = load ptr, ptr %17, align 8
  %.not = icmp eq ptr %27, null
  br i1 %.not, label %.split.us, label %28

.split.us:                                        ; preds = %.lr.ph.split, %.lr.ph.split.us
  tail call void (ptr, ...) @proto_report_dissector_bug(ptr noundef nonnull @.str.1184, ptr noundef nonnull @.str.1157, i32 noundef 4023, ptr noundef nonnull @.str.1230, ptr noundef nonnull @.str.1186) #13
  unreachable

28:                                               ; preds = %.lr.ph.split
  %29 = tail call i32 %27(ptr noundef %0, i32 noundef %.045, ptr noundef %.03643)
  %30 = getelementptr i8, ptr %.03643, i64 %18
  %31 = add i32 %29, %.045
  %32 = add nuw i32 %.03544, 1
  %exitcond.not = icmp eq i32 %32, %4
  br i1 %exitcond.not, label %._crit_edge, label %.lr.ph.split, !llvm.loop !20

._crit_edge:                                      ; preds = %28, %20, %11
  %.0.lcssa = phi i32 [ %1, %11 ], [ %.1.us, %20 ], [ %31, %28 ]
  %33 = sub i32 %.0.lcssa, %1
  ret i32 %33
}